; Function Attrs: mustprogress nounwind uwtable
define noundef nonnull align 8 dereferenceable(208) ptr @_ZN32pxrInternal_v0_24__pxrReserved__18HdNurbsPatchSchema7Builder15SetUVertexCountERKSt10shared_ptrINS_24HdTypedSampledDataSourceIiEEE(ptr noundef nonnull returned align 8 dereferenceable(208) %0, ptr nocapture noundef nonnull readonly align 8 dereferenceable(16) %1) local_unnamed_addr #0 align 2 personality ptr @__gxx_personality_v0 {
  %3 = load ptr, ptr %1, align 8
  store ptr %3, ptr %0, align 8
  %4 = getelementptr inbounds nuw i8, ptr %0, i64 8
  %5 = getelementptr inbounds nuw i8, ptr %1, i64 8
  %6 = load ptr, ptr %5, align 8
  %7 = load ptr, ptr %4, align 8
  %.not.i.i.i = icmp eq ptr %6, %7
  br i1 %.not.i.i.i, label %_ZNSt10shared_ptrIN32pxrInternal_v0_24__pxrReserved__24HdTypedSampledDataSourceIiEEEaSERKS3_.exit, label %8

8:                                                ; preds = %2
  %.not7.i.i.i = icmp eq ptr %6, null
  br i1 %.not7.i.i.i, label %_ZNSt16_Sp_counted_baseILN9__gnu_cxx12_Lock_policyE2EE15_M_add_ref_copyEv.exit.i.i.i, label %9

9:                                                ; preds = %8
  %10 = getelementptr inbounds nuw i8, ptr %6, i64 8
  %11 = load i8, ptr @__libc_single_threaded, align 1
  %.not.i.i.i.i = icmp eq i8 %11, 0
  br i1 %.not.i.i.i.i, label %15, label %12

12:                                               ; preds = %9
  %13 = load i32, ptr %10, align 4
  %14 = add nsw i32 %13, 1
  store i32 %14, ptr %10, align 4
  br label %_ZNSt16_Sp_counted_baseILN9__gnu_cxx12_Lock_policyE2EE15_M_add_ref_copyEv.exitthread-pre-split.i.i.i

15:                                               ; preds = %9
  %16 = atomicrmw volatile add ptr %10, i32 1 acq_rel, align 4
  br label %_ZNSt16_Sp_counted_baseILN9__gnu_cxx12_Lock_policyE2EE15_M_add_ref_copyEv.exitthread-pre-split.i.i.i

_ZNSt16_Sp_counted_baseILN9__gnu_cxx12_Lock_policyE2EE15_M_add_ref_copyEv.exitthread-pre-split.i.i.i: ; preds = %15, %12
  %.pr.i.i.i = load ptr, ptr %4, align 8
  br label %_ZNSt16_Sp_counted_baseILN9__gnu_cxx12_Lock_policyE2EE15_M_add_ref_copyEv.exit.i.i.i

_ZNSt16_Sp_counted_baseILN9__gnu_cxx12_Lock_policyE2EE15_M_add_ref_copyEv.exit.i.i.i: ; preds = %_ZNSt16_Sp_counted_baseILN9__gnu_cxx12_Lock_policyE2EE15_M_add_ref_copyEv.exitthread-pre-split.i.i.i, %8
  %17 = phi ptr [ %.pr.i.i.i, %_ZNSt16_Sp_counted_baseILN9__gnu_cxx12_Lock_policyE2EE15_M_add_ref_copyEv.exitthread-pre-split.i.i.i ], [ %7, %8 ]
  %.not8.i.i.i = icmp eq ptr %17, null
  br i1 %.not8.i.i.i, label %_ZNSt16_Sp_counted_baseILN9__gnu_cxx12_Lock_policyE2EE10_M_releaseEv.exit.i.i.i, label %18

18:                                               ; preds = %_ZNSt16_Sp_counted_baseILN9__gnu_cxx12_Lock_policyE2EE15_M_add_ref_copyEv.exit.i.i.i
  %19 = getelementptr inbounds nuw i8, ptr %17, i64 8
  %20 = load atomic i64, ptr %19 acquire, align 8
  %21 = icmp eq i64 %20, 4294967297
  %22 = trunc i64 %20 to i32
  br i1 %21, label %23, label %28

23:                                               ; preds = %18
  store i32 0, ptr %19, align 8
  %24 = getelementptr inbounds nuw i8, ptr %17, i64 12
  store i32 0, ptr %24, align 4
  %25 = load ptr, ptr %17, align 8
  %26 = getelementptr inbounds i8, ptr %25, i64 16
  %27 = load ptr, ptr %26, align 8
  tail call void %27(ptr noundef nonnull align 8 dereferenceable(16) %17) #17
  br label %_ZNSt16_Sp_counted_baseILN9__gnu_cxx12_Lock_policyE2EE24_M_release_last_use_coldEv.exit.sink.split.i.i.i.i

28:                                               ; preds = %18
  %29 = load i8, ptr @__libc_single_threaded, align 1
  %.not.i9.i.i.i = icmp eq i8 %29, 0
  br i1 %.not.i9.i.i.i, label %32, label %30

30:                                               ; preds = %28
  %31 = add nsw i32 %22, -1
  store i32 %31, ptr %19, align 4
  br label %34

32:                                               ; preds = %28
  %33 = atomicrmw volatile add ptr %19, i32 -1 acq_rel, align 4
  br label %34

34:                                               ; preds = %32, %30
  %.0.i.i.i.i = phi i32 [ %22, %30 ], [ %33, %32 ]
  %35 = icmp eq i32 %.0.i.i.i.i, 1
  br i1 %35, label %36, label %_ZNSt16_Sp_counted_baseILN9__gnu_cxx12_Lock_policyE2EE10_M_releaseEv.exit.i.i.i

36:                                               ; preds = %34
  %37 = load ptr, ptr %17, align 8
  %38 = getelementptr inbounds i8, ptr %37, i64 16
  %39 = load ptr, ptr %38, align 8
  tail call void %39(ptr noundef nonnull align 8 dereferenceable(16) %17) #17
  %40 = getelementptr inbounds nuw i8, ptr %17, i64 12
  %41 = load i8, ptr @__libc_single_threaded, align 1
  %.not.i.i.i.i.i.i = icmp eq i8 %41, 0
  br i1 %.not.i.i.i.i.i.i, label %45, label %42

42:                                               ; preds = %36
  %43 = load i32, ptr %40, align 4
  %44 = add nsw i32 %43, -1
  store i32 %44, ptr %40, align 4
  br label %47

45:                                               ; preds = %36
  %46 = atomicrmw volatile add ptr %40, i32 -1 acq_rel, align 4
  br label %47

47:                                               ; preds = %45, %42
  %.0.i.i.i.i.i.i = phi i32 [ %43, %42 ], [ %46, %45 ]
  %48 = icmp eq i32 %.0.i.i.i.i.i.i, 1
  br i1 %48, label %_ZNSt16_Sp_counted_baseILN9__gnu_cxx12_Lock_policyE2EE24_M_release_last_use_coldEv.exit.sink.split.i.i.i.i, label %_ZNSt16_Sp_counted_baseILN9__gnu_cxx12_Lock_policyE2EE10_M_releaseEv.exit.i.i.i

_ZNSt16_Sp_counted_baseILN9__gnu_cxx12_Lock_policyE2EE24_M_release_last_use_coldEv.exit.sink.split.i.i.i.i: ; preds = %47, %23
  %49 = load ptr, ptr %17, align 8
  %50 = getelementptr inbounds i8, ptr %49, i64 24
  %51 = load ptr, ptr %50, align 8
  tail call void %51(ptr noundef nonnull align 8 dereferenceable(16) %17) #17
  br label %_ZNSt16_Sp_counted_baseILN9__gnu_cxx12_Lock_policyE2EE10_M_releaseEv.exit.i.i.i

_ZNSt16_Sp_counted_baseILN9__gnu_cxx12_Lock_policyE2EE10_M_releaseEv.exit.i.i.i: ; preds = %_ZNSt16_Sp_counted_baseILN9__gnu_cxx12_Lock_policyE2EE24_M_release_last_use_coldEv.exit.sink.split.i.i.i.i, %47, %34, %_ZNSt16_Sp_counted_baseILN9__gnu_cxx12_Lock_policyE2EE15_M_add_ref_copyEv.exit.i.i.i
  store ptr %6, ptr %4, align 8
  br label %_ZNSt10shared_ptrIN32pxrInternal_v0_24__pxrReserved__24HdTypedSampledDataSourceIiEEEaSERKS3_.exit

_ZNSt10shared_ptrIN32pxrInternal_v0_24__pxrReserved__24HdTypedSampledDataSourceIiEEEaSERKS3_.exit: ; preds = %2, %_ZNSt16_Sp_counted_baseILN9__gnu_cxx12_Lock_policyE2EE10_M_releaseEv.exit.i.i.i
  ret ptr %0
}